Certificate:
    Data:
        Version: 3 (0x2)
        Serial Number: 1 (0x1)
    Signature Algorithm: sha256WithRSAEncryption
        Issuer: C=US, ST=FL, L=Orlando, O=Cloudspace, OU=ArdroBot, CN=Cloudspace CA/name=ardrobot_key/emailAddress=ken@cloudspace.com
        Validity
            Not Before: Jan 22 15:05:28 2015 GMT
            Not After : Jan 19 15:05:28 2025 GMT
        Subject: C=US, ST=FL, L=Orlando, O=Cloudspace, OU=ArdroBot, CN=server/name=ardrobot_key/emailAddress=ken@cloudspace.com
        Subject Public Key Info:
            Public Key Algorithm: rsaEncryption
                Public-Key: (2048 bit)
                Modulus:
                    00:e2:81:de:67:e3:f6:df:91:0e:eb:8b:0a:5c:1a:
                    84:c2:cc:99:fb:ef:0d:42:1e:26:f5:d5:18:dc:98:
                    4c:5b:15:81:4c:ea:4b:bb:7a:d3:b3:10:c1:0e:6a:
                    9b:d8:40:c5:71:d8:36:ee:a5:32:f5:e0:26:c0:f9:
                    b8:99:60:18:a1:09:89:43:03:56:21:d3:a3:d9:47:
                    b8:17:6d:8a:46:ba:48:fd:8e:97:8f:d7:38:4f:5a:
                    fe:62:8e:57:26:21:bd:37:8e:49:23:eb:fe:ba:78:
                    30:aa:ca:b6:00:0d:2d:e3:f4:ec:93:f3:70:8b:3b:
                    cc:42:50:4c:16:8a:65:42:36:f8:36:6f:e2:c2:de:
                    c7:25:0a:12:c8:5d:40:52:20:c0:c5:c4:6d:9f:c0:
                    00:5a:83:02:ad:24:83:92:4c:17:f6:f6:83:94:29:
                    a1:24:c3:23:8e:ff:88:c2:0f:5e:de:f2:36:ff:48:
                    da:81:57:c3:42:54:60:81:09:7f:19:bc:57:f1:87:
                    90:8c:5d:71:42:6d:a9:7d:9b:52:82:15:7c:86:e3:
                    b8:86:f0:7b:6a:6a:a1:34:13:4d:66:00:59:de:95:
                    ae:b2:d2:42:a5:71:af:e8:3d:52:00:a1:60:79:51:
                    2c:7b:7f:96:a6:41:40:08:52:c8:9d:67:66:7c:92:
                    d0:6d
                Exponent: 65537 (0x10001)
        X509v3 extensions:
            X509v3 Basic Constraints: 
                CA:FALSE
            Netscape Cert Type: 
                SSL Server
            Netscape Comment: 
                Easy-RSA Generated Server Certificate
            X509v3 Subject Key Identifier: 
                0F:D2:F7:00:39:A6:CA:C0:21:0D:0C:F3:BB:69:4B:1B:AC:A0:5B:17
            X509v3 Authority Key Identifier: 
                keyid:1B:ED:07:C7:39:A6:03:6D:4D:72:83:DF:16:63:37:B4:52:AA:EC:79
                DirName:/C=US/ST=FL/L=Orlando/O=Cloudspace/OU=ArdroBot/CN=Cloudspace CA/name=ardrobot_key/emailAddress=ken@cloudspace.com
                serial:AE:E0:7F:24:06:2D:32:52

            X509v3 Extended Key Usage: 
                TLS Web Server Authentication
            X509v3 Key Usage: 
                Digital Signature, Key Encipherment
            X509v3 Subject Alternative Name: 
                DNS:server
    Signature Algorithm: sha256WithRSAEncryption
         3f:fe:ea:51:19:29:65:fa:25:e6:40:49:47:e8:38:a4:92:d7:
         4e:4d:11:98:f3:6c:09:c0:ef:f8:73:8d:e0:d9:3d:34:ba:c7:
         57:50:2a:2f:7b:67:fb:85:b4:6e:b7:98:6e:9d:18:91:10:73:
         22:6c:f9:15:f0:63:96:b5:8c:e8:fc:aa:cb:18:c0:76:c9:72:
         ff:02:2c:8e:3e:d2:72:5f:1c:0f:08:73:f3:e3:3d:df:9f:50:
         0c:31:9f:69:99:a3:23:5b:f0:fb:9a:1b:d1:ab:1b:4c:5f:e0:
         40:81:49:ef:00:e8:a8:50:c3:a4:d3:a1:a3:9d:ed:e4:4d:1d:
         d1:e2:86:3d:c1:64:9a:27:78:59:4f:e8:eb:4d:69:89:46:a8:
         38:18:fd:a8:eb:fc:70:7e:f6:67:8a:97:27:8e:42:06:ea:14:
         db:9a:9b:d3:f6:de:a1:eb:78:ad:db:d6:40:70:69:eb:21:ca:
         ca:34:46:35:5e:62:25:52:d7:da:b5:be:f5:f4:73:67:f6:08:
         c4:4c:22:fb:d0:a0:1e:b5:21:b2:5a:e7:97:93:1f:0e:9a:b2:
         d0:08:03:3c:b2:ad:43:0f:d2:0a:bd:3d:6a:5b:6d:79:f9:f3:
         b5:ae:d6:9c:45:d6:22:d8:9f:ac:39:d9:8c:c1:9b:07:2f:5c:
         0b:96:fb:07
-----BEGIN CERTIFICATE-----
MIIFTjCCBDagAwIBAgIBATANBgkqhkiG9w0BAQsFADCBpjELMAkGA1UEBhMCVVMx
CzAJBgNVBAgTAkZMMRAwDgYDVQQHEwdPcmxhbmRvMRMwEQYDVQQKEwpDbG91ZHNw
YWNlMREwDwYDVQQLEwhBcmRyb0JvdDEWMBQGA1UEAxMNQ2xvdWRzcGFjZSBDQTEV
MBMGA1UEKRQMYXJkcm9ib3Rfa2V5MSEwHwYJKoZIhvcNAQkBFhJrZW5AY2xvdWRz
cGFjZS5jb20wHhcNMTUwMTIyMTUwNTI4WhcNMjUwMTE5MTUwNTI4WjCBnzELMAkG
A1UEBhMCVVMxCzAJBgNVBAgTAkZMMRAwDgYDVQQHEwdPcmxhbmRvMRMwEQYDVQQK
EwpDbG91ZHNwYWNlMREwDwYDVQQLEwhBcmRyb0JvdDEPMA0GA1UEAxMGc2VydmVy
MRUwEwYDVQQpFAxhcmRyb2JvdF9rZXkxITAfBgkqhkiG9w0BCQEWEmtlbkBjbG91
ZHNwYWNlLmNvbTCCASIwDQYJKoZIhvcNAQEBBQADggEPADCCAQoCggEBAOKB3mfj
9t+RDuuLClwahMLMmfvvDUIeJvXVGNyYTFsVgUzqS7t607MQwQ5qm9hAxXHYNu6l
MvXgJsD5uJlgGKEJiUMDViHTo9lHuBdtika6SP2Ol4/XOE9a/mKOVyYhvTeOSSPr
/rp4MKrKtgANLeP07JPzcIs7zEJQTBaKZUI2+DZv4sLexyUKEshdQFIgwMXEbZ/A
AFqDAq0kg5JMF/b2g5QpoSTDI47/iMIPXt7yNv9I2oFXw0JUYIEJfxm8V/GHkIxd
cUJtqX2bUoIVfIbjuIbwe2pqoTQTTWYAWd6VrrLSQqVxr+g9UgChYHlRLHt/lqZB
QAhSyJ1nZnyS0G0CAwEAAaOCAYowggGGMAkGA1UdEwQCMAAwEQYJYIZIAYb4QgEB
BAQDAgZAMDQGCWCGSAGG+EIBDQQnFiVFYXN5LVJTQSBHZW5lcmF0ZWQgU2VydmVy
IENlcnRpZmljYXRlMB0GA1UdDgQWBBQP0vcAOabKwCENDPO7aUsbrKBbFzCB2wYD
VR0jBIHTMIHQgBQb7QfHOaYDbU1yg98WYze0UqrseaGBrKSBqTCBpjELMAkGA1UE
BhMCVVMxCzAJBgNVBAgTAkZMMRAwDgYDVQQHEwdPcmxhbmRvMRMwEQYDVQQKEwpD
bG91ZHNwYWNlMREwDwYDVQQLEwhBcmRyb0JvdDEWMBQGA1UEAxMNQ2xvdWRzcGFj
ZSBDQTEVMBMGA1UEKRQMYXJkcm9ib3Rfa2V5MSEwHwYJKoZIhvcNAQkBFhJrZW5A
Y2xvdWRzcGFjZS5jb22CCQCu4H8kBi0yUjATBgNVHSUEDDAKBggrBgEFBQcDATAL
BgNVHQ8EBAMCBaAwEQYDVR0RBAowCIIGc2VydmVyMA0GCSqGSIb3DQEBCwUAA4IB
AQA//upRGSll+iXmQElH6DikktdOTRGY82wJwO/4c43g2T00usdXUCove2f7hbRu
t5hunRiREHMibPkV8GOWtYzo/KrLGMB2yXL/AiyOPtJyXxwPCHPz4z3fn1AMMZ9p
maMjW/D7mhvRqxtMX+BAgUnvAOioUMOk06Gjne3kTR3R4oY9wWSaJ3hZT+jrTWmJ
Rqg4GP2o6/xwfvZnipcnjkIG6hTbmpvT9t6h63it29ZAcGnrIcrKNEY1XmIlUtfa
tb719HNn9gjETCL70KAetSGyWueXkx8OmrLQCAM8sq1DD9IKvT1qW215+fO1rtac
RdYi2J+sOdmMwZsHL1wLlvsH
-----END CERTIFICATE-----
